target datalayout = "e-m:e-p270:32:32-p271:32:32-p272:64:64-i64:64-i128:128-f80:128-n8:16:32:64-S128"
target triple = "x86_64-pc-linux-gnu"

%"struct.faiss::IndexFastScan" = type { %"struct.faiss::Index.base", i32, i32, i32, i32, i64, i64, i64, i64, i64, i64, %"struct.faiss::AlignedTable", ptr }
%"struct.faiss::Index.base" = type <{ ptr, i32, [4 x i8], i64, i8, i8, [2 x i8], i32, float }>
%"struct.faiss::AlignedTable" = type { %"struct.faiss::AlignedTableTightAlloc", i64 }
%"struct.faiss::AlignedTableTightAlloc" = type { ptr, i64 }
%"class.std::__cxx11::basic_string" = type { %"struct.std::__cxx11::basic_string<char>::_Alloc_hider", i64, %union.anon }
%"struct.std::__cxx11::basic_string<char>::_Alloc_hider" = type { ptr }
%union.anon = type { i64, [8 x i8] }
%"struct.faiss::Index" = type <{ ptr, i32, [4 x i8], i64, i8, i8, [2 x i8], i32, float, [4 x i8] }>

@.str = private unnamed_addr constant [19 x i8] c"Error: '%s' failed\00", align 1
@.str.1 = private unnamed_addr constant [13 x i8] c"nbits_2 == 4\00", align 1
@__PRETTY_FUNCTION__._ZN5faiss13IndexFastScan13init_fastscanEimmNS_10MetricTypeEi = private unnamed_addr constant [79 x i8] c"void faiss::IndexFastScan::init_fastscan(int, size_t, size_t, MetricType, int)\00", align 1
@.str.2 = private unnamed_addr constant [113 x i8] c"generated/home/dtcxzyw/WorkSpace/Projects/compilers/llvm-opt-benchmark/bench/faiss/faiss/faiss/IndexFastScan.cpp\00", align 1
@_ZTIN5faiss14FaissExceptionE = external constant ptr
@.str.3 = private unnamed_addr constant [14 x i8] c"bbs % 32 == 0\00", align 1

; Function Attrs: mustprogress nounwind uwtable
define linkonce_odr noundef i64 @_ZN5faiss7roundupEmm(i64 noundef %0, i64 noundef %1) #0 comdat {
  %3 = alloca i64, align 8
  %4 = alloca i64, align 8
  store i64 %0, ptr %3, align 8
  store i64 %1, ptr %4, align 8
  %5 = load i64, ptr %3, align 8
  %6 = load i64, ptr %4, align 8
  %7 = add i64 %5, %6
  %8 = sub i64 %7, 1
  %9 = load i64, ptr %4, align 8
  %10 = udiv i64 %8, %9
  %11 = load i64, ptr %4, align 8
  %12 = mul i64 %10, %11
  ret i64 %12
}

; Function Attrs: mustprogress uwtable
define void @_ZN5faiss13IndexFastScan13init_fastscanEimmNS_10MetricTypeEi(ptr noundef nonnull align 8 dereferenceable(136) %0, i32 noundef %1, i64 noundef %2, i64 noundef %3, i32 noundef %4, i32 noundef %5) #2 align 2 personality ptr @__gxx_personality_v0 {
  %7 = alloca ptr, align 8
  %8 = alloca i32, align 4
  %9 = alloca i64, align 8
  %10 = alloca i64, align 8
  %11 = alloca i32, align 4
  %12 = alloca i32, align 4
  %13 = alloca %"class.std::__cxx11::basic_string", align 8
  %14 = alloca i32, align 4
  %15 = alloca ptr, align 8
  %16 = alloca i32, align 4
  %17 = alloca %"class.std::__cxx11::basic_string", align 8
  %18 = alloca i32, align 4
  store ptr %0, ptr %7, align 8
  store i32 %1, ptr %8, align 4
  store i64 %2, ptr %9, align 8
  store i64 %3, ptr %10, align 8
  store i32 %4, ptr %11, align 4
  store i32 %5, ptr %12, align 4
  %19 = load ptr, ptr %7, align 8
  br label %20

20:                                               ; preds = %6
  %21 = load i64, ptr %10, align 8
  %22 = icmp eq i64 %21, 4
  br i1 %22, label %46, label %23

23:                                               ; preds = %20
  br label %24

24:                                               ; preds = %23
  call void @_ZNSt7__cxx1112basic_stringIcSt11char_traitsIcESaIcEEC1Ev(ptr noundef nonnull align 8 dereferenceable(32) %13) #13
  %25 = call i32 (ptr, i64, ptr, ...) @snprintf(ptr noundef null, i64 noundef 0, ptr noundef @.str, ptr noundef @.str.1) #13
  store i32 %25, ptr %14, align 4
  %26 = load i32, ptr %14, align 4
  %27 = add nsw i32 %26, 1
  %28 = sext i32 %27 to i64
  invoke void @_ZNSt7__cxx1112basic_stringIcSt11char_traitsIcESaIcEE6resizeEm(ptr noundef nonnull align 8 dereferenceable(32) %13, i64 noundef %28)
          to label %29 unwind label %36

29:                                               ; preds = %24
  %30 = invoke noundef nonnull align 1 dereferenceable(1) ptr @_ZNSt7__cxx1112basic_stringIcSt11char_traitsIcESaIcEEixEm(ptr noundef nonnull align 8 dereferenceable(32) %13, i64 noundef 0)
          to label %31 unwind label %36

31:                                               ; preds = %29
  %32 = call noundef i64 @_ZNKSt7__cxx1112basic_stringIcSt11char_traitsIcESaIcEE4sizeEv(ptr noundef nonnull align 8 dereferenceable(32) %13) #13
  %33 = call i32 (ptr, i64, ptr, ...) @snprintf(ptr noundef %30, i64 noundef %32, ptr noundef @.str, ptr noundef @.str.1) #13
  %34 = call ptr @__cxa_allocate_exception(i64 40) #13
  invoke void @_ZN5faiss14FaissExceptionC1ERKNSt7__cxx1112basic_stringIcSt11char_traitsIcESaIcEEEPKcSA_i(ptr noundef nonnull align 8 dereferenceable(40) %34, ptr noundef nonnull align 8 dereferenceable(32) %13, ptr noundef @__PRETTY_FUNCTION__._ZN5faiss13IndexFastScan13init_fastscanEimmNS_10MetricTypeEi, ptr noundef @.str.2, i32 noundef 44)
          to label %35 unwind label %40

35:                                               ; preds = %31
  invoke void @__cxa_throw(ptr %34, ptr @_ZTIN5faiss14FaissExceptionE, ptr @_ZN5faiss14FaissExceptionD2Ev) #17
          to label %109 unwind label %36

36:                                               ; preds = %35, %29, %24
  %37 = landingpad { ptr, i32 }
          cleanup
  %38 = extractvalue { ptr, i32 } %37, 0
  store ptr %38, ptr %15, align 8
  %39 = extractvalue { ptr, i32 } %37, 1
  store i32 %39, ptr %16, align 4
  br label %44

40:                                               ; preds = %31
  %41 = landingpad { ptr, i32 }
          cleanup
  %42 = extractvalue { ptr, i32 } %41, 0
  store ptr %42, ptr %15, align 8
  %43 = extractvalue { ptr, i32 } %41, 1
  store i32 %43, ptr %16, align 4
  call void @__cxa_free_exception(ptr %34) #13
  br label %44

44:                                               ; preds = %40, %36
  call void @_ZNSt7__cxx1112basic_stringIcSt11char_traitsIcESaIcEED1Ev(ptr noundef nonnull align 8 dereferenceable(32) %13) #13
  br label %104

45:                                               ; No predecessors!
  br label %46

46:                                               ; preds = %45, %20
  br label %47

47:                                               ; preds = %46
  br label %48

48:                                               ; preds = %47
  %49 = load i32, ptr %12, align 4
  %50 = srem i32 %49, 32
  %51 = icmp eq i32 %50, 0
  br i1 %51, label %75, label %52

52:                                               ; preds = %48
  br label %53

53:                                               ; preds = %52
  call void @_ZNSt7__cxx1112basic_stringIcSt11char_traitsIcESaIcEEC1Ev(ptr noundef nonnull align 8 dereferenceable(32) %17) #13
  %54 = call i32 (ptr, i64, ptr, ...) @snprintf(ptr noundef null, i64 noundef 0, ptr noundef @.str, ptr noundef @.str.3) #13
  store i32 %54, ptr %18, align 4
  %55 = load i32, ptr %18, align 4
  %56 = add nsw i32 %55, 1
  %57 = sext i32 %56 to i64
  invoke void @_ZNSt7__cxx1112basic_stringIcSt11char_traitsIcESaIcEE6resizeEm(ptr noundef nonnull align 8 dereferenceable(32) %17, i64 noundef %57)
          to label %58 unwind label %65

58:                                               ; preds = %53
  %59 = invoke noundef nonnull align 1 dereferenceable(1) ptr @_ZNSt7__cxx1112basic_stringIcSt11char_traitsIcESaIcEEixEm(ptr noundef nonnull align 8 dereferenceable(32) %17, i64 noundef 0)
          to label %60 unwind label %65

60:                                               ; preds = %58
  %61 = call noundef i64 @_ZNKSt7__cxx1112basic_stringIcSt11char_traitsIcESaIcEE4sizeEv(ptr noundef nonnull align 8 dereferenceable(32) %17) #13
  %62 = call i32 (ptr, i64, ptr, ...) @snprintf(ptr noundef %59, i64 noundef %61, ptr noundef @.str, ptr noundef @.str.3) #13
  %63 = call ptr @__cxa_allocate_exception(i64 40) #13
  invoke void @_ZN5faiss14FaissExceptionC1ERKNSt7__cxx1112basic_stringIcSt11char_traitsIcESaIcEEEPKcSA_i(ptr noundef nonnull align 8 dereferenceable(40) %63, ptr noundef nonnull align 8 dereferenceable(32) %17, ptr noundef @__PRETTY_FUNCTION__._ZN5faiss13IndexFastScan13init_fastscanEimmNS_10MetricTypeEi, ptr noundef @.str.2, i32 noundef 45)
          to label %64 unwind label %69

64:                                               ; preds = %60
  invoke void @__cxa_throw(ptr %63, ptr @_ZTIN5faiss14FaissExceptionE, ptr @_ZN5faiss14FaissExceptionD2Ev) #17
          to label %109 unwind label %65

65:                                               ; preds = %64, %58, %53
  %66 = landingpad { ptr, i32 }
          cleanup
  %67 = extractvalue { ptr, i32 } %66, 0
  store ptr %67, ptr %15, align 8
  %68 = extractvalue { ptr, i32 } %66, 1
  store i32 %68, ptr %16, align 4
  br label %73

69:                                               ; preds = %60
  %70 = landingpad { ptr, i32 }
          cleanup
  %71 = extractvalue { ptr, i32 } %70, 0
  store ptr %71, ptr %15, align 8
  %72 = extractvalue { ptr, i32 } %70, 1
  store i32 %72, ptr %16, align 4
  call void @__cxa_free_exception(ptr %63) #13
  br label %73

73:                                               ; preds = %69, %65
  call void @_ZNSt7__cxx1112basic_stringIcSt11char_traitsIcESaIcEED1Ev(ptr noundef nonnull align 8 dereferenceable(32) %17) #13
  br label %104

74:                                               ; No predecessors!
  br label %75

75:                                               ; preds = %74, %48
  br label %76

76:                                               ; preds = %75
  %77 = load i32, ptr %8, align 4
  %78 = getelementptr inbounds %"struct.faiss::Index", ptr %19, i32 0, i32 1
  store i32 %77, ptr %78, align 8
  %79 = load i64, ptr %9, align 8
  %80 = getelementptr inbounds %"struct.faiss::IndexFastScan", ptr %19, i32 0, i32 5
  store i64 %79, ptr %80, align 8
  %81 = load i64, ptr %10, align 8
  %82 = getelementptr inbounds %"struct.faiss::IndexFastScan", ptr %19, i32 0, i32 6
  store i64 %81, ptr %82, align 8
  %83 = load i32, ptr %11, align 4
  %84 = getelementptr inbounds %"struct.faiss::Index", ptr %19, i32 0, i32 7
  store i32 %83, ptr %84, align 4
  %85 = load i32, ptr %12, align 4
  %86 = getelementptr inbounds %"struct.faiss::IndexFastScan", ptr %19, i32 0, i32 3
  store i32 %85, ptr %86, align 4
  %87 = load i64, ptr %10, align 8
  %88 = trunc i64 %87 to i32
  %89 = shl i32 1, %88
  %90 = sext i32 %89 to i64
  %91 = getelementptr inbounds %"struct.faiss::IndexFastScan", ptr %19, i32 0, i32 7
  store i64 %90, ptr %91, align 8
  %92 = load i64, ptr %9, align 8
  %93 = load i64, ptr %10, align 8
  %94 = mul i64 %92, %93
  %95 = add i64 %94, 7
  %96 = udiv i64 %95, 8
  %97 = getelementptr inbounds %"struct.faiss::IndexFastScan", ptr %19, i32 0, i32 8
  store i64 %96, ptr %97, align 8
  %98 = getelementptr inbounds %"struct.faiss::IndexFastScan", ptr %19, i32 0, i32 9
  store i64 0, ptr %98, align 8
  %99 = getelementptr inbounds %"struct.faiss::Index", ptr %19, i32 0, i32 3
  store i64 0, ptr %99, align 8
  %100 = load i64, ptr %9, align 8
  %101 = call noundef i64 @_ZN5faiss7roundupEmm(i64 noundef %100, i64 noundef 2)
  %102 = getelementptr inbounds %"struct.faiss::IndexFastScan", ptr %19, i32 0, i32 10
  store i64 %101, ptr %102, align 8
  %103 = getelementptr inbounds %"struct.faiss::Index", ptr %19, i32 0, i32 5
  store i8 0, ptr %103, align 1
  ret void

104:                                              ; preds = %73, %44
  %105 = load ptr, ptr %15, align 8
  %106 = load i32, ptr %16, align 4
  %107 = insertvalue { ptr, i32 } poison, ptr %105, 0
  %108 = insertvalue { ptr, i32 } %107, i32 %106, 1
  resume { ptr, i32 } %108

109:                                              ; preds = %64, %35
  unreachable
}