; Function Attrs: mustprogress uwtable
define void @_ZN5faiss13IndexFastScan13init_fastscanEimmNS_10MetricTypeEi(ptr nocapture noundef nonnull writeonly align 8 dereferenceable(136) %0, i32 noundef %1, i64 noundef %2, i64 noundef %3, i32 noundef %4, i32 noundef %5) local_unnamed_addr #2 align 2 personality ptr @__gxx_personality_v0 {
  %7 = alloca %"class.std::__cxx11::basic_string", align 8
  %8 = alloca %"class.std::__cxx11::basic_string", align 8
  %9 = icmp eq i64 %3, 4
  br i1 %9, label %25, label %10

10:                                               ; preds = %6
  call void @_ZNSt7__cxx1112basic_stringIcSt11char_traitsIcESaIcEEC1Ev(ptr noundef nonnull align 8 dereferenceable(32) %7) #17
  %11 = call i32 (ptr, i64, ptr, ...) @snprintf(ptr noundef null, i64 noundef 0, ptr noundef nonnull @.str, ptr noundef nonnull @.str.1) #17
  %12 = add nsw i32 %11, 1
  %13 = sext i32 %12 to i64
  invoke void @_ZNSt7__cxx1112basic_stringIcSt11char_traitsIcESaIcEE6resizeEm(ptr noundef nonnull align 8 dereferenceable(32) %7, i64 noundef %13)
          to label %14 unwind label %21

14:                                               ; preds = %10
  %15 = invoke noundef nonnull align 1 dereferenceable(1) ptr @_ZNSt7__cxx1112basic_stringIcSt11char_traitsIcESaIcEEixEm(ptr noundef nonnull align 8 dereferenceable(32) %7, i64 noundef 0)
          to label %16 unwind label %21

16:                                               ; preds = %14
  %17 = call noundef i64 @_ZNKSt7__cxx1112basic_stringIcSt11char_traitsIcESaIcEE4sizeEv(ptr noundef nonnull align 8 dereferenceable(32) %7) #17
  %18 = call i32 (ptr, i64, ptr, ...) @snprintf(ptr noundef nonnull %15, i64 noundef %17, ptr noundef nonnull @.str, ptr noundef nonnull @.str.1) #17
  %19 = call ptr @__cxa_allocate_exception(i64 40) #17
  invoke void @_ZN5faiss14FaissExceptionC1ERKNSt7__cxx1112basic_stringIcSt11char_traitsIcESaIcEEEPKcSA_i(ptr noundef nonnull align 8 dereferenceable(40) %19, ptr noundef nonnull align 8 dereferenceable(32) %7, ptr noundef nonnull @__PRETTY_FUNCTION__._ZN5faiss13IndexFastScan13init_fastscanEimmNS_10MetricTypeEi, ptr noundef nonnull @.str.2, i32 noundef 44)
          to label %20 unwind label %23

20:                                               ; preds = %16
  invoke void @__cxa_throw(ptr nonnull %19, ptr nonnull @_ZTIN5faiss14FaissExceptionE, ptr nonnull @_ZN5faiss14FaissExceptionD2Ev) #25
          to label %61 unwind label %21

21:                                               ; preds = %20, %14, %10
  %22 = landingpad { ptr, i32 }
          cleanup
  br label %60

23:                                               ; preds = %16
  %24 = landingpad { ptr, i32 }
          cleanup
  call void @__cxa_free_exception(ptr %19) #17
  br label %60

25:                                               ; preds = %6
  %26 = and i32 %5, 31
  %27 = icmp eq i32 %26, 0
  br i1 %27, label %43, label %28

28:                                               ; preds = %25
  call void @_ZNSt7__cxx1112basic_stringIcSt11char_traitsIcESaIcEEC1Ev(ptr noundef nonnull align 8 dereferenceable(32) %8) #17
  %29 = call i32 (ptr, i64, ptr, ...) @snprintf(ptr noundef null, i64 noundef 0, ptr noundef nonnull @.str, ptr noundef nonnull @.str.3) #17
  %30 = add nsw i32 %29, 1
  %31 = sext i32 %30 to i64
  invoke void @_ZNSt7__cxx1112basic_stringIcSt11char_traitsIcESaIcEE6resizeEm(ptr noundef nonnull align 8 dereferenceable(32) %8, i64 noundef %31)
          to label %32 unwind label %39

32:                                               ; preds = %28
  %33 = invoke noundef nonnull align 1 dereferenceable(1) ptr @_ZNSt7__cxx1112basic_stringIcSt11char_traitsIcESaIcEEixEm(ptr noundef nonnull align 8 dereferenceable(32) %8, i64 noundef 0)
          to label %34 unwind label %39

34:                                               ; preds = %32
  %35 = call noundef i64 @_ZNKSt7__cxx1112basic_stringIcSt11char_traitsIcESaIcEE4sizeEv(ptr noundef nonnull align 8 dereferenceable(32) %8) #17
  %36 = call i32 (ptr, i64, ptr, ...) @snprintf(ptr noundef nonnull %33, i64 noundef %35, ptr noundef nonnull @.str, ptr noundef nonnull @.str.3) #17
  %37 = call ptr @__cxa_allocate_exception(i64 40) #17
  invoke void @_ZN5faiss14FaissExceptionC1ERKNSt7__cxx1112basic_stringIcSt11char_traitsIcESaIcEEEPKcSA_i(ptr noundef nonnull align 8 dereferenceable(40) %37, ptr noundef nonnull align 8 dereferenceable(32) %8, ptr noundef nonnull @__PRETTY_FUNCTION__._ZN5faiss13IndexFastScan13init_fastscanEimmNS_10MetricTypeEi, ptr noundef nonnull @.str.2, i32 noundef 45)
          to label %38 unwind label %41

38:                                               ; preds = %34
  invoke void @__cxa_throw(ptr nonnull %37, ptr nonnull @_ZTIN5faiss14FaissExceptionE, ptr nonnull @_ZN5faiss14FaissExceptionD2Ev) #25
          to label %61 unwind label %39

39:                                               ; preds = %38, %32, %28
  %40 = landingpad { ptr, i32 }
          cleanup
  br label %60

41:                                               ; preds = %34
  %42 = landingpad { ptr, i32 }
          cleanup
  call void @__cxa_free_exception(ptr %37) #17
  br label %60

43:                                               ; preds = %25
  %44 = getelementptr inbounds i8, ptr %0, i64 8
  store i32 %1, ptr %44, align 8
  %45 = getelementptr inbounds i8, ptr %0, i64 56
  store i64 %2, ptr %45, align 8
  %46 = getelementptr inbounds i8, ptr %0, i64 64
  store i64 4, ptr %46, align 8
  %47 = getelementptr inbounds i8, ptr %0, i64 28
  store i32 %4, ptr %47, align 4
  %48 = getelementptr inbounds i8, ptr %0, i64 44
  store i32 %5, ptr %48, align 4
  %49 = getelementptr inbounds i8, ptr %0, i64 72
  store i64 16, ptr %49, align 8
  %50 = shl i64 %2, 2
  %51 = add i64 %50, 7
  %52 = lshr i64 %51, 3
  %53 = getelementptr inbounds i8, ptr %0, i64 80
  store i64 %52, ptr %53, align 8
  %54 = getelementptr inbounds i8, ptr %0, i64 88
  store i64 0, ptr %54, align 8
  %55 = getelementptr inbounds i8, ptr %0, i64 16
  store i64 0, ptr %55, align 8
  %56 = add i64 %2, 1
  %57 = and i64 %56, -2
  %58 = getelementptr inbounds i8, ptr %0, i64 96
  store i64 %57, ptr %58, align 8
  %59 = getelementptr inbounds i8, ptr %0, i64 25
  store i8 0, ptr %59, align 1
  ret void

60:                                               ; preds = %39, %41, %21, %23
  %.sink = phi ptr [ %7, %23 ], [ %7, %21 ], [ %8, %41 ], [ %8, %39 ]
  %.pn20.pn = phi { ptr, i32 } [ %24, %23 ], [ %22, %21 ], [ %42, %41 ], [ %40, %39 ]
  call void @_ZNSt7__cxx1112basic_stringIcSt11char_traitsIcESaIcEED1Ev(ptr noundef nonnull align 8 dereferenceable(32) %.sink) #17
  resume { ptr, i32 } %.pn20.pn

61:                                               ; preds = %38, %20
  unreachable
}